(lp0
(lp1
V\u7269\u8bed\u7cfb\u5217\u7b2c2\u5b63
p2
aV\u6781\u5f71
p3
aVGB
p4
aV720P
p5
aV
p6
aa(lp7
V\u60a0\u54c9\u65e5\u5e38\u5927\u738b
p8
aV\u6781\u5f71
p9
aVGB
p10
aV720P
p11
ag6
aa(lp12
V\u5883\u754c\u7684\u5f7c\u65b9
p13
aV\u6f84\u7a7a
p14
aV\u7b80\u4f53
p15
aV720P
p16
ag6
aa.